; Function Attrs: mustprogress uwtable
define dso_local void @_ZNK17cmOutputConverter21ConvertToOutputFormatB5cxx11ESt17basic_string_viewIcSt11char_traitsIcEENS_12OutputFormatEb(ptr dead_on_unwind noalias writable sret(%"class.std::__cxx11::basic_string") align 8 %0, ptr noundef nonnull align 8 dereferenceable(108) %1, i64 %2, ptr %3, i32 noundef %4, i1 noundef zeroext %5) local_unnamed_addr #3 align 2 personality ptr @__gxx_personality_v0 {
  %7 = alloca %"struct.std::__cxx11::basic_string<char>::__sv_wrapper", align 8
  %8 = alloca %"class.std::allocator", align 1
  %9 = alloca %"class.std::__cxx11::basic_string", align 8
  %10 = alloca %"class.std::__cxx11::basic_string", align 8
  %11 = alloca %"class.std::__cxx11::basic_string", align 8
  call void @_ZNSaIcEC1Ev(ptr noundef nonnull align 1 dereferenceable(1) %8) #18
  call void @llvm.lifetime.start.p0(i64 16, ptr nonnull %7)
  %12 = call { i64, ptr } @_ZNSt7__cxx1112basic_stringIcSt11char_traitsIcESaIcEE17_S_to_string_viewESt17basic_string_viewIcS2_E(i64 %2, ptr %3) #18
  %13 = extractvalue { i64, ptr } %12, 0
  %14 = extractvalue { i64, ptr } %12, 1
  call void @_ZNSt7__cxx1112basic_stringIcSt11char_traitsIcESaIcEE12__sv_wrapperC1ESt17basic_string_viewIcS2_E(ptr noundef nonnull align 8 dereferenceable(16) %7, i64 %13, ptr %14) #18
  %15 = load i64, ptr %7, align 8
  %16 = getelementptr inbounds i8, ptr %7, i64 8
  %17 = load ptr, ptr %16, align 8
  invoke void @_ZNSt7__cxx1112basic_stringIcSt11char_traitsIcESaIcEEC2ENS4_12__sv_wrapperERKS3_(ptr noundef nonnull align 8 dereferenceable(32) %0, i64 %15, ptr %17, ptr noundef nonnull align 1 dereferenceable(1) %8)
          to label %18 unwind label %26

18:                                               ; preds = %6
  call void @llvm.lifetime.end.p0(i64 16, ptr nonnull %7)
  call void @_ZNSaIcED1Ev(ptr noundef nonnull align 1 dereferenceable(1) %8) #18
  %19 = icmp eq i32 %4, 1
  %or.cond = icmp ult i32 %4, 2
  br i1 %or.cond, label %20, label %30

20:                                               ; preds = %18
  invoke void @_ZNK17cmOutputConverter34ConvertDirectorySeparatorsForShellB5cxx11ESt17basic_string_viewIcSt11char_traitsIcEE(ptr dead_on_unwind nonnull writable sret(%"class.std::__cxx11::basic_string") align 8 %9, ptr noundef nonnull align 8 dereferenceable(108) %1, i64 %2, ptr %3)
          to label %21 unwind label %28

21:                                               ; preds = %20
  %22 = call noundef nonnull align 8 dereferenceable(32) ptr @_ZNSt7__cxx1112basic_stringIcSt11char_traitsIcESaIcEEaSEOS4_(ptr noundef nonnull align 8 dereferenceable(32) %0, ptr noundef nonnull align 8 dereferenceable(32) %9) #18
  call void @_ZNSt7__cxx1112basic_stringIcSt11char_traitsIcESaIcEED1Ev(ptr noundef nonnull align 8 dereferenceable(32) %9) #18
  %23 = call { i64, ptr } @_ZNKSt7__cxx1112basic_stringIcSt11char_traitsIcESaIcEEcvSt17basic_string_viewIcS2_EEv(ptr noundef nonnull align 8 dereferenceable(32) %0) #18
  %24 = extractvalue { i64, ptr } %23, 0
  %25 = extractvalue { i64, ptr } %23, 1
  invoke void @_ZNK17cmOutputConverter14EscapeForShellB5cxx11ESt17basic_string_viewIcSt11char_traitsIcEEbbbbb(ptr dead_on_unwind nonnull writable sret(%"class.std::__cxx11::basic_string") align 8 %10, ptr noundef nonnull align 8 dereferenceable(108) %1, i64 %24, ptr %25, i1 noundef zeroext true, i1 noundef zeroext false, i1 noundef zeroext %5, i1 noundef zeroext %19, i1 noundef zeroext false)
          to label %.sink.split unwind label %28

26:                                               ; preds = %6
  %27 = landingpad { ptr, i32 }
          cleanup
  call void @_ZNSaIcED1Ev(ptr noundef nonnull align 1 dereferenceable(1) %8) #18
  br label %38

28:                                               ; preds = %32, %21, %20
  %29 = landingpad { ptr, i32 }
          cleanup
  call void @_ZNSt7__cxx1112basic_stringIcSt11char_traitsIcESaIcEED1Ev(ptr noundef nonnull align 8 dereferenceable(32) %0) #18
  br label %38

30:                                               ; preds = %18
  %31 = icmp eq i32 %4, 2
  br i1 %31, label %32, label %37

32:                                               ; preds = %30
  %33 = call { i64, ptr } @_ZNKSt7__cxx1112basic_stringIcSt11char_traitsIcESaIcEEcvSt17basic_string_viewIcS2_EEv(ptr noundef nonnull align 8 dereferenceable(32) %0) #18
  %34 = extractvalue { i64, ptr } %33, 0
  %35 = extractvalue { i64, ptr } %33, 1
  invoke void @_ZNK17cmOutputConverter14EscapeForShellB5cxx11ESt17basic_string_viewIcSt11char_traitsIcEEbbbbb(ptr dead_on_unwind nonnull writable sret(%"class.std::__cxx11::basic_string") align 8 %11, ptr noundef nonnull align 8 dereferenceable(108) %1, i64 %34, ptr %35, i1 noundef zeroext false, i1 noundef zeroext false, i1 noundef zeroext %5, i1 noundef zeroext false, i1 noundef zeroext true)
          to label %.sink.split unwind label %28

.sink.split:                                      ; preds = %32, %21
  %.sink18 = phi ptr [ %10, %21 ], [ %11, %32 ]
  %36 = call noundef nonnull align 8 dereferenceable(32) ptr @_ZNSt7__cxx1112basic_stringIcSt11char_traitsIcESaIcEEaSEOS4_(ptr noundef nonnull align 8 dereferenceable(32) %0, ptr noundef nonnull align 8 dereferenceable(32) %.sink18) #18
  call void @_ZNSt7__cxx1112basic_stringIcSt11char_traitsIcESaIcEED1Ev(ptr noundef nonnull align 8 dereferenceable(32) %.sink18) #18
  br label %37

37:                                               ; preds = %.sink.split, %30
  ret void

38:                                               ; preds = %28, %26
  %.pn = phi { ptr, i32 } [ %29, %28 ], [ %27, %26 ]
  resume { ptr, i32 } %.pn
}